; ModuleID = '58/66.c'
source_filename = "58/66.c"
target datalayout = "e-m:e-p270:32:32-p271:32:32-p272:64:64-i64:64-f80:128-n8:16:32:64-S128"
target triple = "x86_64-pc-linux-gnu"

@.str = private unnamed_addr constant [4 x i8] c"%d\0A\00", align 1
@.str.1 = private unnamed_addr constant [3 x i8] c"%d\00", align 1
@.str.2 = private unnamed_addr constant [4 x i8] c"\0A%d\00", align 1

; Function Attrs: noinline nounwind uwtable
define dso_local i32 @main() #0 {
  %1 = alloca i32, align 4
  %2 = alloca i8*, align 8
  %3 = alloca i32, align 4
  %4 = alloca i32, align 4
  %5 = alloca i32, align 4
  %6 = alloca i32, align 4
  %7 = alloca i32*, align 8
  store i32 0, i32* %1, align 4
  %8 = call i32 (i8*, ...) @__isoc99_scanf(i8* getelementptr inbounds ([4 x i8], [4 x i8]* @.str, i64 0, i64 0), i32* %3)
  %9 = load i32, i32* %3, align 4
  %10 = sext i32 %9 to i64
  %11 = mul i64 %10, 4
  %12 = call noalias i8* @malloc(i64 %11) #3
  %13 = bitcast i8* %12 to i32*
  store i32* %13, i32** %7, align 8
  store i32 0, i32* %4, align 4
  br label %14

14:                                               ; preds = %131, %0
  %15 = load i32, i32* %4, align 4
  %16 = load i32, i32* %3, align 4
  %17 = icmp slt i32 %15, %16
  br i1 %17, label %18, label %134

18:                                               ; preds = %14
  %19 = call noalias i8* @malloc(i64 80) #3
  store i8* %19, i8** %2, align 8
  %20 = load i8*, i8** %2, align 8
  %21 = call i32 (i8*, ...) bitcast (i32 (...)* @gets to i32 (i8*, ...)*)(i8* %20)
  store i32 0, i32* %5, align 4
  br label %22

22:                                               ; preds = %89, %18
  %23 = load i8*, i8** %2, align 8
  %24 = load i32, i32* %5, align 4
  %25 = sext i32 %24 to i64
  %26 = getelementptr inbounds i8, i8* %23, i64 %25
  %27 = load i8, i8* %26, align 1
  %28 = sext i8 %27 to i32
  %29 = icmp ne i32 %28, 0
  br i1 %29, label %30, label %92

30:                                               ; preds = %22
  %31 = load i8*, i8** %2, align 8
  %32 = load i32, i32* %5, align 4
  %33 = sext i32 %32 to i64
  %34 = getelementptr inbounds i8, i8* %31, i64 %33
  %35 = load i8, i8* %34, align 1
  %36 = sext i8 %35 to i32
  %37 = icmp eq i32 %36, 95
  br i1 %37, label %86, label %38

38:                                               ; preds = %30
  %39 = load i8*, i8** %2, align 8
  %40 = load i32, i32* %5, align 4
  %41 = sext i32 %40 to i64
  %42 = getelementptr inbounds i8, i8* %39, i64 %41
  %43 = load i8, i8* %42, align 1
  %44 = sext i8 %43 to i32
  %45 = icmp sge i32 %44, 65
  br i1 %45, label %46, label %54

46:                                               ; preds = %38
  %47 = load i8*, i8** %2, align 8
  %48 = load i32, i32* %5, align 4
  %49 = sext i32 %48 to i64
  %50 = getelementptr inbounds i8, i8* %47, i64 %49
  %51 = load i8, i8* %50, align 1
  %52 = sext i8 %51 to i32
  %53 = icmp sle i32 %52, 90
  br i1 %53, label %86, label %54

54:                                               ; preds = %46, %38
  %55 = load i8*, i8** %2, align 8
  %56 = load i32, i32* %5, align 4
  %57 = sext i32 %56 to i64
  %58 = getelementptr inbounds i8, i8* %55, i64 %57
  %59 = load i8, i8* %58, align 1
  %60 = sext i8 %59 to i32
  %61 = icmp sge i32 %60, 97
  br i1 %61, label %62, label %70

62:                                               ; preds = %54
  %63 = load i8*, i8** %2, align 8
  %64 = load i32, i32* %5, align 4
  %65 = sext i32 %64 to i64
  %66 = getelementptr inbounds i8, i8* %63, i64 %65
  %67 = load i8, i8* %66, align 1
  %68 = sext i8 %67 to i32
  %69 = icmp sle i32 %68, 122
  br i1 %69, label %86, label %70

70:                                               ; preds = %62, %54
  %71 = load i8*, i8** %2, align 8
  %72 = load i32, i32* %5, align 4
  %73 = sext i32 %72 to i64
  %74 = getelementptr inbounds i8, i8* %71, i64 %73
  %75 = load i8, i8* %74, align 1
  %76 = sext i8 %75 to i32
  %77 = icmp sge i32 %76, 48
  br i1 %77, label %78, label %87

78:                                               ; preds = %70
  %79 = load i8*, i8** %2, align 8
  %80 = load i32, i32* %5, align 4
  %81 = sext i32 %80 to i64
  %82 = getelementptr inbounds i8, i8* %79, i64 %81
  %83 = load i8, i8* %82, align 1
  %84 = sext i8 %83 to i32
  %85 = icmp sle i32 %84, 57
  br i1 %85, label %86, label %87

86:                                               ; preds = %78, %62, %46, %30
  store i32 1, i32* %6, align 4
  br label %88

87:                                               ; preds = %78, %70
  store i32 0, i32* %6, align 4
  br label %92

88:                                               ; preds = %86
  br label %89

89:                                               ; preds = %88
  %90 = load i32, i32* %5, align 4
  %91 = add nsw i32 %90, 1
  store i32 %91, i32* %5, align 4
  br label %22

92:                                               ; preds = %87, %22
  %93 = load i8*, i8** %2, align 8
  %94 = load i8, i8* %93, align 1
  %95 = sext i8 %94 to i32
  %96 = icmp eq i32 %95, 95
  br i1 %96, label %117, label %97

97:                                               ; preds = %92
  %98 = load i8*, i8** %2, align 8
  %99 = load i8, i8* %98, align 1
  %100 = sext i8 %99 to i32
  %101 = icmp sge i32 %100, 65
  br i1 %101, label %102, label %107

102:                                              ; preds = %97
  %103 = load i8*, i8** %2, align 8
  %104 = load i8, i8* %103, align 1
  %105 = sext i8 %104 to i32
  %106 = icmp sle i32 %105, 90
  br i1 %106, label %117, label %107

107:                                              ; preds = %102, %97
  %108 = load i8*, i8** %2, align 8
  %109 = load i8, i8* %108, align 1
  %110 = sext i8 %109 to i32
  %111 = icmp sge i32 %110, 97
  br i1 %111, label %112, label %125

112:                                              ; preds = %107
  %113 = load i8*, i8** %2, align 8
  %114 = load i8, i8* %113, align 1
  %115 = sext i8 %114 to i32
  %116 = icmp sle i32 %115, 122
  br i1 %116, label %117, label %125

117:                                              ; preds = %112, %102, %92
  %118 = load i32, i32* %6, align 4
  %119 = icmp eq i32 %118, 1
  br i1 %119, label %120, label %125

120:                                              ; preds = %117
  %121 = load i32*, i32** %7, align 8
  %122 = load i32, i32* %4, align 4
  %123 = sext i32 %122 to i64
  %124 = getelementptr inbounds i32, i32* %121, i64 %123
  store i32 1, i32* %124, align 4
  br label %130

125:                                              ; preds = %117, %112, %107
  %126 = load i32*, i32** %7, align 8
  %127 = load i32, i32* %4, align 4
  %128 = sext i32 %127 to i64
  %129 = getelementptr inbounds i32, i32* %126, i64 %128
  store i32 0, i32* %129, align 4
  br label %130

130:                                              ; preds = %125, %120
  br label %131

131:                                              ; preds = %130
  %132 = load i32, i32* %4, align 4
  %133 = add nsw i32 %132, 1
  store i32 %133, i32* %4, align 4
  br label %14

134:                                              ; preds = %14
  %135 = load i32*, i32** %7, align 8
  %136 = load i32, i32* %135, align 4
  %137 = call i32 (i8*, ...) @printf(i8* getelementptr inbounds ([3 x i8], [3 x i8]* @.str.1, i64 0, i64 0), i32 %136)
  store i32 1, i32* %4, align 4
  br label %138

138:                                              ; preds = %149, %134
  %139 = load i32, i32* %4, align 4
  %140 = load i32, i32* %3, align 4
  %141 = icmp slt i32 %139, %140
  br i1 %141, label %142, label %152

142:                                              ; preds = %138
  %143 = load i32*, i32** %7, align 8
  %144 = load i32, i32* %4, align 4
  %145 = sext i32 %144 to i64
  %146 = getelementptr inbounds i32, i32* %143, i64 %145
  %147 = load i32, i32* %146, align 4
  %148 = call i32 (i8*, ...) @printf(i8* getelementptr inbounds ([4 x i8], [4 x i8]* @.str.2, i64 0, i64 0), i32 %147)
  br label %149

149:                                              ; preds = %142
  %150 = load i32, i32* %4, align 4
  %151 = add nsw i32 %150, 1
  store i32 %151, i32* %4, align 4
  br label %138

152:                                              ; preds = %138
  %153 = load i32, i32* %1, align 4
  ret i32 %153
}

declare dso_local i32 @__isoc99_scanf(i8*, ...) #1

; Function Attrs: nounwind
declare dso_local noalias i8* @malloc(i64) #2

declare dso_local i32 @gets(...) #1

declare dso_local i32 @printf(i8*, ...) #1


!llvm.module.flags = !{!0}
!llvm.ident = !{!1}

!0 = !{i32 1, !"wchar_size", i32 4}
!1 = !{!"clang version 10.0.0-4ubuntu1 "}
